target datalayout = "e-m:e-p270:32:32-p271:32:32-p272:64:64-i64:64-i128:128-f80:128-n8:16:32:64-S128"
target triple = "x86_64-pc-linux-gnu"

%struct.err_state_st = type { [16 x %struct.err_error_st], i32, i32, ptr }
%struct.err_error_st = type { ptr, ptr, i32, i16, i8 }

; Function Attrs: nounwind uwtable
define internal void @err_clear_data(ptr noundef %0) #0 {
  %2 = alloca ptr, align 8
  store ptr %0, ptr %2, align 8, !tbaa !20
  %3 = load ptr, ptr %2, align 8, !tbaa !20
  %4 = getelementptr inbounds nuw %struct.err_error_st, ptr %3, i32 0, i32 4
  %5 = load i8, ptr %4, align 2, !tbaa !30
  %6 = zext i8 %5 to i32
  %7 = and i32 %6, 16
  %8 = icmp ne i32 %7, 0
  br i1 %8, label %9, label %13

9:                                                ; preds = %1
  %10 = load ptr, ptr %2, align 8, !tbaa !20
  %11 = getelementptr inbounds nuw %struct.err_error_st, ptr %10, i32 0, i32 1
  %12 = load ptr, ptr %11, align 8, !tbaa !29
  call void @free(ptr noundef %12) #12
  br label %13

13:                                               ; preds = %9, %1
  %14 = load ptr, ptr %2, align 8, !tbaa !20
  %15 = getelementptr inbounds nuw %struct.err_error_st, ptr %14, i32 0, i32 1
  store ptr null, ptr %15, align 8, !tbaa !29
  %16 = load ptr, ptr %2, align 8, !tbaa !20
  %17 = getelementptr inbounds nuw %struct.err_error_st, ptr %16, i32 0, i32 4
  %18 = load i8, ptr %17, align 2, !tbaa !30
  %19 = zext i8 %18 to i32
  %20 = and i32 %19, -17
  %21 = trunc i32 %20 to i8
  store i8 %21, ptr %17, align 2, !tbaa !30
  ret void
}

; Function Attrs: nounwind uwtable
define internal void @err_clear(ptr noundef %0) #0 {
  %2 = alloca ptr, align 8
  store ptr %0, ptr %2, align 8, !tbaa !20
  %3 = load ptr, ptr %2, align 8, !tbaa !20
  call void @err_clear_data(ptr noundef %3)
  %4 = load ptr, ptr %2, align 8, !tbaa !20
  call void @llvm.memset.p0.i64(ptr align 8 %4, i8 0, i64 24, i1 false)
  ret void
}

; Function Attrs: nounwind uwtable
define internal void @err_state_free(ptr noundef %0) #0 {
  %2 = alloca ptr, align 8
  %3 = alloca ptr, align 8
  %4 = alloca i32, align 4
  %5 = alloca i32, align 4
  store ptr %0, ptr %2, align 8, !tbaa !37
  call void @llvm.lifetime.start.p0(i64 8, ptr %3) #12
  %6 = load ptr, ptr %2, align 8, !tbaa !37
  store ptr %6, ptr %3, align 8, !tbaa !15
  %7 = load ptr, ptr %3, align 8, !tbaa !15
  %8 = icmp eq ptr %7, null
  br i1 %8, label %9, label %10

9:                                                ; preds = %1
  store i32 1, ptr %4, align 4
  br label %28

10:                                               ; preds = %1
  call void @llvm.lifetime.start.p0(i64 4, ptr %5) #12
  store i32 0, ptr %5, align 4, !tbaa !6
  br label %11

11:                                               ; preds = %20, %10
  %12 = load i32, ptr %5, align 4, !tbaa !6
  %13 = icmp ult i32 %12, 16
  br i1 %13, label %14, label %23

14:                                               ; preds = %11
  %15 = load ptr, ptr %3, align 8, !tbaa !15
  %16 = getelementptr inbounds nuw %struct.err_state_st, ptr %15, i32 0, i32 0
  %17 = load i32, ptr %5, align 4, !tbaa !6
  %18 = zext i32 %17 to i64
  %19 = getelementptr inbounds nuw [16 x %struct.err_error_st], ptr %16, i64 0, i64 %18
  call void @err_clear(ptr noundef %19)
  br label %20

20:                                               ; preds = %14
  %21 = load i32, ptr %5, align 4, !tbaa !6
  %22 = add i32 %21, 1
  store i32 %22, ptr %5, align 4, !tbaa !6
  br label %11, !llvm.loop !45

23:                                               ; preds = %11
  %24 = load ptr, ptr %3, align 8, !tbaa !15
  %25 = getelementptr inbounds nuw %struct.err_state_st, ptr %24, i32 0, i32 3
  %26 = load ptr, ptr %25, align 8, !tbaa !31
  call void @free(ptr noundef %26) #12
  %27 = load ptr, ptr %3, align 8, !tbaa !15
  call void @free(ptr noundef %27) #12
  call void @llvm.lifetime.end.p0(i64 4, ptr %5) #12
  store i32 0, ptr %4, align 4
  br label %28

28:                                               ; preds = %23, %9
  call void @llvm.lifetime.end.p0(i64 8, ptr %3) #12
  %29 = load i32, ptr %4, align 4
  switch i32 %29, label %31 [
    i32 0, label %30
    i32 1, label %30
  ]

30:                                               ; preds = %28, %28
  ret void

31:                                               ; preds = %28
  unreachable
}