; Function Attrs: nounwind uwtable
define internal void @err_state_free(ptr noundef captures(address_is_null) %0) #0 {
  %2 = icmp eq ptr %0, null
  br i1 %2, label %13, label %.preheader

.preheader:                                       ; preds = %1, %err_clear.exit
  %indvars.iv = phi i64 [ %indvars.iv.next, %err_clear.exit ], [ 0, %1 ]
  %3 = getelementptr inbounds nuw [16 x %struct.err_error_st], ptr %0, i64 0, i64 %indvars.iv
  %4 = getelementptr inbounds nuw i8, ptr %3, i64 22
  %5 = load i8, ptr %4, align 2, !tbaa !17
  %6 = and i8 %5, 16
  %.not.i.i = icmp eq i8 %6, 0
  br i1 %.not.i.i, label %err_clear.exit, label %7

7:                                                ; preds = %.preheader
  %8 = getelementptr inbounds nuw i8, ptr %3, i64 8
  %9 = load ptr, ptr %8, align 8, !tbaa !18
  tail call void @free(ptr noundef %9) #17
  br label %err_clear.exit

err_clear.exit:                                   ; preds = %.preheader, %7
  tail call void @llvm.memset.p0.i64(ptr noundef nonnull align 8 dereferenceable(24) %3, i8 0, i64 24, i1 false)
  %indvars.iv.next = add nuw nsw i64 %indvars.iv, 1
  %exitcond.not = icmp eq i64 %indvars.iv.next, 16
  br i1 %exitcond.not, label %10, label %.preheader, !llvm.loop !33

10:                                               ; preds = %err_clear.exit
  %11 = getelementptr inbounds nuw i8, ptr %0, i64 392
  %12 = load ptr, ptr %11, align 8, !tbaa !23
  tail call void @free(ptr noundef %12) #17
  tail call void @free(ptr noundef nonnull %0) #17
  br label %13

13:                                               ; preds = %1, %10
  ret void
}